; Function Attrs: mustprogress uwtable
define <2 x float> @_ZN2cv6detail12AffineWarper9warpPointERKNS_6Point_IfEERKNS_11_InputArrayES8_(ptr noundef nonnull align 8 captures(none) dereferenceable(168) %0, ptr noundef nonnull readonly align 4 captures(none) dereferenceable(8) %1, ptr noundef nonnull align 8 dereferenceable(24) %2, ptr noundef nonnull align 8 dereferenceable(24) %3) unnamed_addr #8 align 2 personality ptr @__gxx_personality_v0 {
  %5 = alloca %"class.cv::Mat", align 8
  %6 = alloca %"class.cv::Mat", align 8
  %7 = alloca %"class.cv::_InputArray", align 8
  %8 = alloca %"class.cv::_InputArray", align 8
  call void @llvm.lifetime.start.p0(i64 96, ptr nonnull %5) #22
  call void @_ZN2cv3MatC1Ev(ptr noundef nonnull align 8 dereferenceable(96) %5) #22
  call void @llvm.lifetime.start.p0(i64 96, ptr nonnull %6) #22
  call void @_ZN2cv3MatC1Ev(ptr noundef nonnull align 8 dereferenceable(96) %6) #22
  invoke void @_ZN2cv6detail12AffineWarper20getRTfromHomogeneousERKNS_11_InputArrayERNS_3MatES6_(ptr nonnull align 8 poison, ptr noundef nonnull align 8 dereferenceable(24) %3, ptr noundef nonnull align 8 dereferenceable(96) %5, ptr noundef nonnull align 8 dereferenceable(96) %6)
          to label %9 unwind label %62

9:                                                ; preds = %4
  call void @llvm.lifetime.start.p0(i64 24, ptr nonnull %7) #22
  %10 = getelementptr inbounds nuw i8, ptr %7, i64 16
  store i32 0, ptr %10, align 8, !tbaa !203
  %11 = getelementptr inbounds nuw i8, ptr %7, i64 20
  store i32 0, ptr %11, align 4, !tbaa !204
  store i32 16842752, ptr %7, align 8, !tbaa !205
  %12 = getelementptr inbounds nuw i8, ptr %7, i64 8
  store ptr %5, ptr %12, align 8, !tbaa !160
  call void @llvm.lifetime.start.p0(i64 24, ptr nonnull %8) #22
  %13 = getelementptr inbounds nuw i8, ptr %8, i64 16
  store i32 0, ptr %13, align 8, !tbaa !203
  %14 = getelementptr inbounds nuw i8, ptr %8, i64 20
  store i32 0, ptr %14, align 4, !tbaa !204
  store i32 16842752, ptr %8, align 8, !tbaa !205
  %15 = getelementptr inbounds nuw i8, ptr %8, i64 8
  store ptr %6, ptr %15, align 8, !tbaa !160
  %16 = getelementptr inbounds nuw i8, ptr %0, i64 8
  invoke void @_ZN2cv6detail13ProjectorBase15setCameraParamsERKNS_11_InputArrayES4_S4_(ptr noundef nonnull align 4 dereferenceable(160) %16, ptr noundef nonnull align 8 dereferenceable(24) %2, ptr noundef nonnull align 8 dereferenceable(24) %7, ptr noundef nonnull align 8 dereferenceable(24) %8)
          to label %17 unwind label %64

17:                                               ; preds = %9
  %18 = load float, ptr %1, align 4, !tbaa !198
  %19 = getelementptr inbounds nuw i8, ptr %1, i64 4
  %20 = load float, ptr %19, align 4, !tbaa !200
  %21 = getelementptr inbounds nuw i8, ptr %0, i64 84
  %22 = load float, ptr %21, align 4, !tbaa !180
  %23 = getelementptr inbounds nuw i8, ptr %0, i64 88
  %24 = load float, ptr %23, align 8, !tbaa !180
  %25 = fmul float %20, %24
  %26 = call float @llvm.fmuladd.f32(float %22, float %18, float %25)
  %27 = getelementptr inbounds nuw i8, ptr %0, i64 92
  %28 = load float, ptr %27, align 4, !tbaa !180
  %29 = fadd float %28, %26
  %30 = getelementptr inbounds nuw i8, ptr %0, i64 96
  %31 = load float, ptr %30, align 8, !tbaa !180
  %32 = getelementptr inbounds nuw i8, ptr %0, i64 100
  %33 = load float, ptr %32, align 4, !tbaa !180
  %34 = fmul float %20, %33
  %35 = call float @llvm.fmuladd.f32(float %31, float %18, float %34)
  %36 = getelementptr inbounds nuw i8, ptr %0, i64 104
  %37 = load float, ptr %36, align 8, !tbaa !180
  %38 = fadd float %37, %35
  %39 = getelementptr inbounds nuw i8, ptr %0, i64 108
  %40 = load float, ptr %39, align 4, !tbaa !180
  %41 = getelementptr inbounds nuw i8, ptr %0, i64 112
  %42 = load float, ptr %41, align 8, !tbaa !180
  %43 = fmul float %20, %42
  %44 = call float @llvm.fmuladd.f32(float %40, float %18, float %43)
  %45 = getelementptr inbounds nuw i8, ptr %0, i64 116
  %46 = load float, ptr %45, align 4, !tbaa !180
  %47 = fadd float %46, %44
  %48 = getelementptr inbounds nuw i8, ptr %0, i64 156
  %49 = load float, ptr %48, align 4, !tbaa !180
  %50 = fdiv float %29, %47
  %51 = getelementptr inbounds nuw i8, ptr %0, i64 164
  %52 = load float, ptr %51, align 4, !tbaa !180
  %53 = fsub float 1.000000e+00, %52
  %54 = call float @llvm.fmuladd.f32(float %50, float %53, float %49)
  %55 = getelementptr inbounds nuw i8, ptr %0, i64 160
  %56 = load float, ptr %55, align 8, !tbaa !180
  %57 = fdiv float %38, %47
  %58 = call float @llvm.fmuladd.f32(float %57, float %53, float %56)
  %59 = load float, ptr %16, align 8, !tbaa !201
  %60 = fmul float %59, %54
  %.sroa.0.0.vec.insert8.i = insertelement <2 x float> poison, float %60, i64 0
  %61 = fmul float %58, %59
  %.sroa.0.4.vec.insert.i = insertelement <2 x float> %.sroa.0.0.vec.insert8.i, float %61, i64 1
  call void @llvm.lifetime.end.p0(i64 24, ptr nonnull %8) #22
  call void @llvm.lifetime.end.p0(i64 24, ptr nonnull %7) #22
  call void @_ZN2cv3MatD1Ev(ptr noundef nonnull align 8 dereferenceable(96) %6) #22
  call void @llvm.lifetime.end.p0(i64 96, ptr nonnull %6) #22
  call void @_ZN2cv3MatD1Ev(ptr noundef nonnull align 8 dereferenceable(96) %5) #22
  call void @llvm.lifetime.end.p0(i64 96, ptr nonnull %5) #22
  ret <2 x float> %.sroa.0.4.vec.insert.i

62:                                               ; preds = %4
  %63 = landingpad { ptr, i32 }
          cleanup
  br label %66

64:                                               ; preds = %9
  %65 = landingpad { ptr, i32 }
          cleanup
  call void @llvm.lifetime.end.p0(i64 24, ptr nonnull %8) #22
  call void @llvm.lifetime.end.p0(i64 24, ptr nonnull %7) #22
  br label %66

66:                                               ; preds = %64, %62
  %.pn.pn.pn = phi { ptr, i32 } [ %65, %64 ], [ %63, %62 ]
  call void @_ZN2cv3MatD1Ev(ptr noundef nonnull align 8 dereferenceable(96) %6) #22
  call void @llvm.lifetime.end.p0(i64 96, ptr nonnull %6) #22
  call void @_ZN2cv3MatD1Ev(ptr noundef nonnull align 8 dereferenceable(96) %5) #22
  call void @llvm.lifetime.end.p0(i64 96, ptr nonnull %5) #22
  resume { ptr, i32 } %.pn.pn.pn
}